target datalayout = "e-m:e-p270:32:32-p271:32:32-p272:64:64-i64:64-i128:128-f80:128-n8:16:32:64-S128"
target triple = "x86_64-pc-linux-gnu"

%struct.deparse_context = type { ptr, ptr, ptr, ptr, ptr, i32, i32, i32, i8, i8, i8, i8, ptr }
%struct.Node = type { i32 }
%struct.Const = type { %struct.Expr, i32, i32, i32, i32, i64, i8, i8, i32 }
%struct.Expr = type { i32 }

@.str.77 = private unnamed_addr constant [5 x i8] c"::%s\00", align 1

; Function Attrs: nounwind uwtable
define internal void @get_rule_expr_paren(ptr noundef %0, ptr noundef %1, i1 noundef zeroext %2, ptr noundef %3) #0 {
  %5 = alloca ptr, align 8
  %6 = alloca ptr, align 8
  %7 = alloca i8, align 1
  %8 = alloca ptr, align 8
  %9 = alloca i8, align 1
  store ptr %0, ptr %5, align 8
  store ptr %1, ptr %6, align 8
  %10 = zext i1 %2 to i8
  store i8 %10, ptr %7, align 1
  store ptr %3, ptr %8, align 8
  call void @llvm.lifetime.start.p0(i64 1, ptr %9) #10
  %11 = load ptr, ptr %6, align 8
  %12 = getelementptr inbounds nuw %struct.deparse_context, ptr %11, i32 0, i32 5
  %13 = load i32, ptr %12, align 8
  %14 = and i32 %13, 1
  %15 = icmp ne i32 %14, 0
  br i1 %15, label %16, label %24

16:                                               ; preds = %4
  %17 = load ptr, ptr %5, align 8
  %18 = load ptr, ptr %8, align 8
  %19 = load ptr, ptr %6, align 8
  %20 = getelementptr inbounds nuw %struct.deparse_context, ptr %19, i32 0, i32 5
  %21 = load i32, ptr %20, align 8
  %22 = call zeroext i1 @isSimpleNode(ptr noundef %17, ptr noundef %18, i32 noundef %21)
  %23 = xor i1 %22, true
  br label %24

24:                                               ; preds = %16, %4
  %25 = phi i1 [ false, %4 ], [ %23, %16 ]
  %26 = zext i1 %25 to i8
  store i8 %26, ptr %9, align 1
  %27 = load i8, ptr %9, align 1, !range !4, !noundef !5
  %28 = trunc i8 %27 to i1
  br i1 %28, label %29, label %33

29:                                               ; preds = %24
  %30 = load ptr, ptr %6, align 8
  %31 = getelementptr inbounds nuw %struct.deparse_context, ptr %30, i32 0, i32 0
  %32 = load ptr, ptr %31, align 8
  call void @appendStringInfoChar(ptr noundef %32, i8 noundef signext 40)
  br label %33

33:                                               ; preds = %29, %24
  %34 = load ptr, ptr %5, align 8
  %35 = load ptr, ptr %6, align 8
  %36 = load i8, ptr %7, align 1, !range !4, !noundef !5
  %37 = trunc i8 %36 to i1
  call void @get_rule_expr(ptr noundef %34, ptr noundef %35, i1 noundef zeroext %37)
  %38 = load i8, ptr %9, align 1, !range !4, !noundef !5
  %39 = trunc i8 %38 to i1
  br i1 %39, label %40, label %44

40:                                               ; preds = %33
  %41 = load ptr, ptr %6, align 8
  %42 = getelementptr inbounds nuw %struct.deparse_context, ptr %41, i32 0, i32 0
  %43 = load ptr, ptr %42, align 8
  call void @appendStringInfoChar(ptr noundef %43, i8 noundef signext 41)
  br label %44

44:                                               ; preds = %40, %33
  call void @llvm.lifetime.end.p0(i64 1, ptr %9) #10
  ret void
}

; Function Attrs: nounwind uwtable
define internal void @get_coercion_expr(ptr noundef %0, ptr noundef %1, i32 noundef %2, i32 noundef %3, ptr noundef %4) #0 {
  %6 = alloca ptr, align 8
  %7 = alloca ptr, align 8
  %8 = alloca i32, align 4
  %9 = alloca i32, align 4
  %10 = alloca ptr, align 8
  %11 = alloca ptr, align 8
  store ptr %0, ptr %6, align 8
  store ptr %1, ptr %7, align 8
  store i32 %2, ptr %8, align 4
  store i32 %3, ptr %9, align 4
  store ptr %4, ptr %10, align 8
  call void @llvm.lifetime.start.p0(i64 8, ptr %11) #10
  %12 = load ptr, ptr %7, align 8
  %13 = getelementptr inbounds nuw %struct.deparse_context, ptr %12, i32 0, i32 0
  %14 = load ptr, ptr %13, align 8
  store ptr %14, ptr %11, align 8
  %15 = load ptr, ptr %6, align 8
  %16 = icmp ne ptr %15, null
  br i1 %16, label %17, label %36

17:                                               ; preds = %5
  %18 = load ptr, ptr %6, align 8
  %19 = getelementptr inbounds nuw %struct.Node, ptr %18, i32 0, i32 0
  %20 = load i32, ptr %19, align 4
  %21 = icmp eq i32 %20, 7
  br i1 %21, label %22, label %36

22:                                               ; preds = %17
  %23 = load ptr, ptr %6, align 8
  %24 = getelementptr inbounds nuw %struct.Const, ptr %23, i32 0, i32 1
  %25 = load i32, ptr %24, align 4
  %26 = load i32, ptr %8, align 4
  %27 = icmp eq i32 %25, %26
  br i1 %27, label %28, label %36

28:                                               ; preds = %22
  %29 = load ptr, ptr %6, align 8
  %30 = getelementptr inbounds nuw %struct.Const, ptr %29, i32 0, i32 2
  %31 = load i32, ptr %30, align 8
  %32 = icmp eq i32 %31, -1
  br i1 %32, label %33, label %36

33:                                               ; preds = %28
  %34 = load ptr, ptr %6, align 8
  %35 = load ptr, ptr %7, align 8
  call void @get_const_expr(ptr noundef %34, ptr noundef %35, i32 noundef -1)
  br label %56

36:                                               ; preds = %28, %22, %17, %5
  %37 = load ptr, ptr %7, align 8
  %38 = getelementptr inbounds nuw %struct.deparse_context, ptr %37, i32 0, i32 5
  %39 = load i32, ptr %38, align 8
  %40 = and i32 %39, 1
  %41 = icmp ne i32 %40, 0
  br i1 %41, label %44, label %42

42:                                               ; preds = %36
  %43 = load ptr, ptr %11, align 8
  call void @appendStringInfoChar(ptr noundef %43, i8 noundef signext 40)
  br label %44

44:                                               ; preds = %42, %36
  %45 = load ptr, ptr %6, align 8
  %46 = load ptr, ptr %7, align 8
  %47 = load ptr, ptr %10, align 8
  call void @get_rule_expr_paren(ptr noundef %45, ptr noundef %46, i1 noundef zeroext false, ptr noundef %47)
  %48 = load ptr, ptr %7, align 8
  %49 = getelementptr inbounds nuw %struct.deparse_context, ptr %48, i32 0, i32 5
  %50 = load i32, ptr %49, align 8
  %51 = and i32 %50, 1
  %52 = icmp ne i32 %51, 0
  br i1 %52, label %55, label %53

53:                                               ; preds = %44
  %54 = load ptr, ptr %11, align 8
  call void @appendStringInfoChar(ptr noundef %54, i8 noundef signext 41)
  br label %55

55:                                               ; preds = %53, %44
  br label %56

56:                                               ; preds = %55, %33
  %57 = load ptr, ptr %11, align 8
  %58 = load i32, ptr %8, align 4
  %59 = load i32, ptr %9, align 4
  %60 = call ptr @format_type_with_typemod(i32 noundef %58, i32 noundef %59)
  call void (ptr, ptr, ...) @appendStringInfo(ptr noundef %57, ptr noundef @.str.77, ptr noundef %60)
  call void @llvm.lifetime.end.p0(i64 8, ptr %11) #10
  ret void
}