; Function Attrs: nounwind uwtable
define internal fastcc void @get_coercion_expr(ptr noundef %0, ptr noundef %1, i32 noundef %2, i32 noundef %3, ptr noundef nonnull readonly captures(none) %4) unnamed_addr #0 {
  %6 = load ptr, ptr %1, align 8
  %.not = icmp eq ptr %0, null
  br i1 %.not, label %19, label %7

7:                                                ; preds = %5
  %8 = load i32, ptr %0, align 4
  %9 = icmp eq i32 %8, 7
  br i1 %9, label %10, label %19

10:                                               ; preds = %7
  %11 = getelementptr inbounds nuw i8, ptr %0, i64 4
  %12 = load i32, ptr %11, align 4
  %13 = icmp eq i32 %12, %2
  br i1 %13, label %14, label %19

14:                                               ; preds = %10
  %15 = getelementptr inbounds nuw i8, ptr %0, i64 8
  %16 = load i32, ptr %15, align 8
  %17 = icmp eq i32 %16, -1
  br i1 %17, label %18, label %19

18:                                               ; preds = %14
  tail call fastcc void @get_const_expr(ptr noundef nonnull %0, ptr noundef nonnull %1, i32 noundef -1)
  br label %33

19:                                               ; preds = %14, %10, %7, %5
  %20 = getelementptr inbounds nuw i8, ptr %1, i64 40
  %21 = load i32, ptr %20, align 8
  %22 = and i32 %21, 1
  %.not17 = icmp eq i32 %22, 0
  br i1 %.not17, label %23, label %.thread

23:                                               ; preds = %19
  tail call void @appendStringInfoChar(ptr noundef %6, i8 noundef signext 40) #11
  %.pre = load i32, ptr %20, align 8
  %.pre19 = and i32 %.pre, 1
  %24 = icmp eq i32 %.pre19, 0
  br i1 %24, label %.critedge.i, label %.thread

.thread:                                          ; preds = %19, %23
  %25 = phi i32 [ %.pre, %23 ], [ %21, %19 ]
  %26 = tail call fastcc zeroext i1 @isSimpleNode(ptr noundef %0, ptr noundef nonnull %4, i32 noundef %25)
  br i1 %26, label %.critedge.i, label %27

27:                                               ; preds = %.thread
  %28 = load ptr, ptr %1, align 8
  tail call void @appendStringInfoChar(ptr noundef %28, i8 noundef signext 40) #11
  tail call fastcc void @get_rule_expr(ptr noundef %0, ptr noundef nonnull %1, i1 noundef zeroext false)
  %29 = load ptr, ptr %1, align 8
  tail call void @appendStringInfoChar(ptr noundef %29, i8 noundef signext 41) #11
  br label %get_rule_expr_paren.exit

.critedge.i:                                      ; preds = %.thread, %23
  tail call fastcc void @get_rule_expr(ptr noundef %0, ptr noundef nonnull %1, i1 noundef zeroext false)
  br label %get_rule_expr_paren.exit

get_rule_expr_paren.exit:                         ; preds = %27, %.critedge.i
  %30 = load i32, ptr %20, align 8
  %31 = and i32 %30, 1
  %.not18 = icmp eq i32 %31, 0
  br i1 %.not18, label %32, label %33

32:                                               ; preds = %get_rule_expr_paren.exit
  tail call void @appendStringInfoChar(ptr noundef %6, i8 noundef signext 41) #11
  br label %33

33:                                               ; preds = %get_rule_expr_paren.exit, %32, %18
  %34 = tail call ptr @format_type_with_typemod(i32 noundef %2, i32 noundef %3) #11
  tail call void (ptr, ptr, ...) @appendStringInfo(ptr noundef %6, ptr noundef nonnull @.str.77, ptr noundef %34) #11
  ret void
}